; Function Attrs: mustprogress uwtable
define void @_ZN3g2o8RawLaserC2Ev(ptr noundef nonnull align 16 dereferenceable(256) %0) unnamed_addr #4 align 2 personality ptr @__gxx_personality_v0 {
  tail call void @_ZN3g2o9RobotDataC2Ev(ptr noundef nonnull align 8 dereferenceable(104) %0)
  store ptr getelementptr inbounds nuw inrange(-16, 40) (i8, ptr @_ZTVN3g2o8RawLaserE, i64 16), ptr %0, align 16, !tbaa !3
  %2 = getelementptr inbounds nuw i8, ptr %0, i64 104
  %3 = getelementptr inbounds nuw i8, ptr %0, i64 160
  tail call void @llvm.memset.p0.i64(ptr noundef nonnull align 8 dereferenceable(48) %2, i8 0, i64 48, i1 false)
  invoke void @_ZN3g2o15LaserParametersC1Eiiddddid(ptr noundef nonnull align 16 dereferenceable(96) %3, i32 noundef 0, i32 noundef 180, double noundef 0xBFF921FB54442D18, double noundef 0x3F91DF46A2529D39, double noundef 5.000000e+01, double noundef 1.000000e-01, i32 noundef 0, double noundef 0.000000e+00)
          to label %4 unwind label %5

4:                                                ; preds = %1
  ret void

5:                                                ; preds = %1
  %6 = landingpad { ptr, i32 }
          cleanup
  %7 = getelementptr inbounds nuw i8, ptr %0, i64 128
  %8 = load ptr, ptr %7, align 16, !tbaa !6
  %.not.i.i.i = icmp eq ptr %8, null
  br i1 %.not.i.i.i, label %_ZNSt6vectorIdSaIdEED2Ev.exit, label %9

9:                                                ; preds = %5
  %10 = getelementptr inbounds nuw i8, ptr %0, i64 144
  %11 = load ptr, ptr %10, align 16, !tbaa !11
  %12 = ptrtoint ptr %11 to i64
  %13 = ptrtoint ptr %8 to i64
  %14 = sub i64 %12, %13
  tail call void @_ZdlPvm(ptr noundef nonnull %8, i64 noundef %14) #18
  br label %_ZNSt6vectorIdSaIdEED2Ev.exit

_ZNSt6vectorIdSaIdEED2Ev.exit:                    ; preds = %5, %9
  %15 = load ptr, ptr %2, align 8, !tbaa !6
  %.not.i.i.i2 = icmp eq ptr %15, null
  br i1 %.not.i.i.i2, label %_ZNSt6vectorIdSaIdEED2Ev.exit3, label %16

16:                                               ; preds = %_ZNSt6vectorIdSaIdEED2Ev.exit
  %17 = getelementptr inbounds nuw i8, ptr %0, i64 120
  %18 = load ptr, ptr %17, align 8, !tbaa !11
  %19 = ptrtoint ptr %18 to i64
  %20 = ptrtoint ptr %15 to i64
  %21 = sub i64 %19, %20
  tail call void @_ZdlPvm(ptr noundef nonnull %15, i64 noundef %21) #18
  br label %_ZNSt6vectorIdSaIdEED2Ev.exit3

_ZNSt6vectorIdSaIdEED2Ev.exit3:                   ; preds = %_ZNSt6vectorIdSaIdEED2Ev.exit, %16
  tail call void @_ZN3g2o9RobotDataD2Ev(ptr noundef nonnull align 8 dereferenceable(104) %0) #19
  resume { ptr, i32 } %6
}